(dp1
S'img_id'
p2
(dp3
S'type'
p4
S'reference image'
p5
sS'sortable'
p6
I2
sS'sql'
p7
S'INTEGER REFERENCES image(id) ON DELETE CASCADE'
p8
ssS'counter'
p9
(dp10
S'sortable'
p11
I3
sS'type'
p12
S'integer'
p13
sS'sql'
p14
S'INTEGER'
p15
ssS'usrname'
p16
(dp17
g4
S'string'
p18
sg6
I3
sg7
S'CHAR(512)'
p19
ssS'id'
p20
(dp21
g4
S'id'
p22
sg6
I1
sg7
S'INTEGER PRIMARY KEY AUTOINCREMENT'
p23
ssS'num_of_likes'
p24
(dp25
S'sortable'
p26
I3
sS'type'
p27
S'integer'
p28
sS'sql'
p29
S'INTEGER'
p30
ss.